target datalayout = "e-m:e-p270:32:32-p271:32:32-p272:64:64-i64:64-i128:128-f80:128-n8:16:32:64-S128"
target triple = "x86_64-unknown-linux-gnu"

%"struct.node::AssertionInfo" = type { ptr, ptr, ptr }
%"class.node::MemoryRetainer" = type { ptr }
%"class.node::MutexBase" = type { %union.pthread_mutex_t }
%union.pthread_mutex_t = type { %struct.__pthread_mutex_s }
%struct.__pthread_mutex_s = type { i32, i32, i32, i32, i32, i16, i16, %struct.__pthread_internal_list }
%struct.__pthread_internal_list = type { ptr, ptr }
%"class.std::vector.273" = type { %"struct.std::_Vector_base.274" }
%"struct.std::_Vector_base.274" = type { %"struct.std::_Vector_base<unsigned char, std::allocator<unsigned char>>::_Vector_impl" }
%"struct.std::_Vector_base<unsigned char, std::allocator<unsigned char>>::_Vector_impl" = type { %"struct.std::_Vector_base<unsigned char, std::allocator<unsigned char>>::_Vector_impl_data" }
%"struct.std::_Vector_base<unsigned char, std::allocator<unsigned char>>::_Vector_impl_data" = type { ptr, ptr, ptr }
%"struct.node::(anonymous namespace)::CompressionError" = type <{ ptr, ptr, i32, [4 x i8] }>
%"class.node::(anonymous namespace)::ZlibContext" = type { %"class.node::MemoryRetainer", %"class.node::MutexBase", i8, i32, i32, i32, i32, i32, i32, i32, i32, %"class.std::vector.273", %struct.z_stream_s }
%struct.z_stream_s = type { ptr, i32, i64, ptr, i32, i64, ptr, ptr, ptr, ptr, ptr, i32, i64, i64 }
%"class.__gnu_cxx::__normal_iterator" = type { ptr }

@.str.6 = private unnamed_addr constant [5 x i8] c"Z_OK\00", align 1
@.str.7 = private unnamed_addr constant [13 x i8] c"Z_STREAM_END\00", align 1
@.str.8 = private unnamed_addr constant [12 x i8] c"Z_NEED_DICT\00", align 1
@.str.9 = private unnamed_addr constant [8 x i8] c"Z_ERRNO\00", align 1
@.str.10 = private unnamed_addr constant [15 x i8] c"Z_STREAM_ERROR\00", align 1
@.str.11 = private unnamed_addr constant [13 x i8] c"Z_DATA_ERROR\00", align 1
@.str.12 = private unnamed_addr constant [12 x i8] c"Z_MEM_ERROR\00", align 1
@.str.13 = private unnamed_addr constant [12 x i8] c"Z_BUF_ERROR\00", align 1
@.str.14 = private unnamed_addr constant [16 x i8] c"Z_VERSION_ERROR\00", align 1
@.str.173 = private unnamed_addr constant [25 x i8] c"Failed to set dictionary\00", align 1
@.str.174 = private unnamed_addr constant [16 x i8] c"Z_UNKNOWN_ERROR\00", align 1
@_ZZN4node12_GLOBAL__N_116CompressionErrorC1EPKcS3_iE4args = internal constant %"struct.node::AssertionInfo" { ptr @.str.175, ptr @.str.176, ptr @.str.177 }, align 8

; Function Attrs: mustprogress nounwind uwtable
define linkonce_odr dso_local noundef nonnull align 8 dereferenceable(8) ptr @_ZNK9__gnu_cxx17__normal_iteratorIPKhSt6vectorIhSaIhEEE4baseEv(ptr noundef nonnull align 8 dereferenceable(8) %this) #4 comdat align 2 {
entry:
  %this.addr = alloca ptr, align 8
  store ptr %this, ptr %this.addr, align 8
  %this1 = load ptr, ptr %this.addr, align 8
  %_M_current = getelementptr inbounds %"class.__gnu_cxx::__normal_iterator", ptr %this1, i32 0, i32 0
  ret ptr %_M_current
}

; Function Attrs: mustprogress nounwind uwtable
define linkonce_odr dso_local void @_ZN9__gnu_cxx17__normal_iteratorIPKhSt6vectorIhSaIhEEEC2ERKS2_(ptr noundef nonnull align 8 dereferenceable(8) %this, ptr noundef nonnull align 8 dereferenceable(8) %__i) unnamed_addr #4 comdat align 2 {
entry:
  %this.addr = alloca ptr, align 8
  %__i.addr = alloca ptr, align 8
  store ptr %this, ptr %this.addr, align 8
  store ptr %__i, ptr %__i.addr, align 8
  %this1 = load ptr, ptr %this.addr, align 8
  %_M_current = getelementptr inbounds %"class.__gnu_cxx::__normal_iterator", ptr %this1, i32 0, i32 0
  %0 = load ptr, ptr %__i.addr, align 8
  %1 = load ptr, ptr %0, align 8
  store ptr %1, ptr %_M_current, align 8
  ret void
}

; Function Attrs: mustprogress nounwind uwtable
define internal void @_ZN4node12_GLOBAL__N_116CompressionErrorC2EPKcS3_i(ptr noundef nonnull align 8 dereferenceable(20) %this, ptr noundef %message, ptr noundef %code, i32 noundef %err) unnamed_addr #4 align 2 {
entry:
  %this.addr = alloca ptr, align 8
  %message.addr = alloca ptr, align 8
  %code.addr = alloca ptr, align 8
  %err.addr = alloca i32, align 4
  store ptr %this, ptr %this.addr, align 8
  store ptr %message, ptr %message.addr, align 8
  store ptr %code, ptr %code.addr, align 8
  store i32 %err, ptr %err.addr, align 4
  %this1 = load ptr, ptr %this.addr, align 8
  %message2 = getelementptr inbounds %"struct.node::(anonymous namespace)::CompressionError", ptr %this1, i32 0, i32 0
  %0 = load ptr, ptr %message.addr, align 8
  store ptr %0, ptr %message2, align 8
  %code3 = getelementptr inbounds %"struct.node::(anonymous namespace)::CompressionError", ptr %this1, i32 0, i32 1
  %1 = load ptr, ptr %code.addr, align 8
  store ptr %1, ptr %code3, align 8
  %err4 = getelementptr inbounds %"struct.node::(anonymous namespace)::CompressionError", ptr %this1, i32 0, i32 2
  %2 = load i32, ptr %err.addr, align 4
  store i32 %2, ptr %err4, align 8
  br label %do.body

do.body:                                          ; preds = %entry
  %3 = load ptr, ptr %message.addr, align 8
  %cmp = icmp ne ptr %3, null
  %lnot = xor i1 %cmp, true
  %lnot5 = xor i1 %lnot, true
  %lnot6 = xor i1 %lnot5, true
  br i1 %lnot6, label %if.then, label %if.end

if.then:                                          ; preds = %do.body
  br label %do.body7

do.body7:                                         ; preds = %if.then
  call void @_ZN4node6AssertERKNS_13AssertionInfoE(ptr noundef nonnull align 8 dereferenceable(24) @_ZZN4node12_GLOBAL__N_116CompressionErrorC1EPKcS3_iE4args)
  call void @abort() #13
  unreachable

do.end:                                           ; No predecessors!
  br label %if.end

if.end:                                           ; preds = %do.end, %do.body
  br label %do.end8

do.end8:                                          ; preds = %if.end
  ret void
}

; Function Attrs: mustprogress nounwind uwtable
define internal noundef ptr @_ZN4node12_GLOBAL__N_112ZlibStrerrorEi(i32 noundef %err) #4 {
entry:
  %retval = alloca ptr, align 8
  %err.addr = alloca i32, align 4
  store i32 %err, ptr %err.addr, align 4
  %0 = load i32, ptr %err.addr, align 4
  %cmp = icmp eq i32 %0, 0
  br i1 %cmp, label %if.then, label %if.end

if.then:                                          ; preds = %entry
  store ptr @.str.6, ptr %retval, align 8
  br label %return

if.end:                                           ; preds = %entry
  %1 = load i32, ptr %err.addr, align 4
  %cmp1 = icmp eq i32 %1, 1
  br i1 %cmp1, label %if.then2, label %if.end3

if.then2:                                         ; preds = %if.end
  store ptr @.str.7, ptr %retval, align 8
  br label %return

if.end3:                                          ; preds = %if.end
  %2 = load i32, ptr %err.addr, align 4
  %cmp4 = icmp eq i32 %2, 2
  br i1 %cmp4, label %if.then5, label %if.end6

if.then5:                                         ; preds = %if.end3
  store ptr @.str.8, ptr %retval, align 8
  br label %return

if.end6:                                          ; preds = %if.end3
  %3 = load i32, ptr %err.addr, align 4
  %cmp7 = icmp eq i32 %3, -1
  br i1 %cmp7, label %if.then8, label %if.end9

if.then8:                                         ; preds = %if.end6
  store ptr @.str.9, ptr %retval, align 8
  br label %return

if.end9:                                          ; preds = %if.end6
  %4 = load i32, ptr %err.addr, align 4
  %cmp10 = icmp eq i32 %4, -2
  br i1 %cmp10, label %if.then11, label %if.end12

if.then11:                                        ; preds = %if.end9
  store ptr @.str.10, ptr %retval, align 8
  br label %return

if.end12:                                         ; preds = %if.end9
  %5 = load i32, ptr %err.addr, align 4
  %cmp13 = icmp eq i32 %5, -3
  br i1 %cmp13, label %if.then14, label %if.end15

if.then14:                                        ; preds = %if.end12
  store ptr @.str.11, ptr %retval, align 8
  br label %return

if.end15:                                         ; preds = %if.end12
  %6 = load i32, ptr %err.addr, align 4
  %cmp16 = icmp eq i32 %6, -4
  br i1 %cmp16, label %if.then17, label %if.end18

if.then17:                                        ; preds = %if.end15
  store ptr @.str.12, ptr %retval, align 8
  br label %return

if.end18:                                         ; preds = %if.end15
  %7 = load i32, ptr %err.addr, align 4
  %cmp19 = icmp eq i32 %7, -5
  br i1 %cmp19, label %if.then20, label %if.end21

if.then20:                                        ; preds = %if.end18
  store ptr @.str.13, ptr %retval, align 8
  br label %return

if.end21:                                         ; preds = %if.end18
  %8 = load i32, ptr %err.addr, align 4
  %cmp22 = icmp eq i32 %8, -6
  br i1 %cmp22, label %if.then23, label %if.end24

if.then23:                                        ; preds = %if.end21
  store ptr @.str.14, ptr %retval, align 8
  br label %return

if.end24:                                         ; preds = %if.end21
  store ptr @.str.174, ptr %retval, align 8
  br label %return

return:                                           ; preds = %if.end24, %if.then23, %if.then20, %if.then17, %if.then14, %if.then11, %if.then8, %if.then5, %if.then2, %if.then
  %9 = load ptr, ptr %retval, align 8
  ret ptr %9
}

; Function Attrs: mustprogress nounwind uwtable
define linkonce_odr dso_local noundef ptr @_ZNKSt6vectorIhSaIhEE11_M_data_ptrIhEEPT_S4_(ptr noundef nonnull align 8 dereferenceable(24) %this, ptr noundef %__ptr) #4 comdat align 2 {
entry:
  %this.addr = alloca ptr, align 8
  %__ptr.addr = alloca ptr, align 8
  store ptr %this, ptr %this.addr, align 8
  store ptr %__ptr, ptr %__ptr.addr, align 8
  %0 = load ptr, ptr %__ptr.addr, align 8
  ret ptr %0
}

; Function Attrs: mustprogress nounwind uwtable
define linkonce_odr dso_local noundef zeroext i1 @_ZN9__gnu_cxxeqIPKhSt6vectorIhSaIhEEEEbRKNS_17__normal_iteratorIT_T0_EESB_(ptr noundef nonnull align 8 dereferenceable(8) %__lhs, ptr noundef nonnull align 8 dereferenceable(8) %__rhs) #4 comdat {
entry:
  %__lhs.addr = alloca ptr, align 8
  %__rhs.addr = alloca ptr, align 8
  store ptr %__lhs, ptr %__lhs.addr, align 8
  store ptr %__rhs, ptr %__rhs.addr, align 8
  %0 = load ptr, ptr %__lhs.addr, align 8
  %call = call noundef nonnull align 8 dereferenceable(8) ptr @_ZNK9__gnu_cxx17__normal_iteratorIPKhSt6vectorIhSaIhEEE4baseEv(ptr noundef nonnull align 8 dereferenceable(8) %0) #3
  %1 = load ptr, ptr %call, align 8
  %2 = load ptr, ptr %__rhs.addr, align 8
  %call1 = call noundef nonnull align 8 dereferenceable(8) ptr @_ZNK9__gnu_cxx17__normal_iteratorIPKhSt6vectorIhSaIhEEE4baseEv(ptr noundef nonnull align 8 dereferenceable(8) %2) #3
  %3 = load ptr, ptr %call1, align 8
  %cmp = icmp eq ptr %1, %3
  ret i1 %cmp
}

; Function Attrs: mustprogress nounwind uwtable
define linkonce_odr dso_local ptr @_ZNKSt6vectorIhSaIhEE3endEv(ptr noundef nonnull align 8 dereferenceable(24) %this) #4 comdat align 2 {
entry:
  %retval = alloca %"class.__gnu_cxx::__normal_iterator", align 8
  %this.addr = alloca ptr, align 8
  store ptr %this, ptr %this.addr, align 8
  %this1 = load ptr, ptr %this.addr, align 8
  %_M_impl = getelementptr inbounds %"struct.std::_Vector_base.274", ptr %this1, i32 0, i32 0
  %_M_finish = getelementptr inbounds %"struct.std::_Vector_base<unsigned char, std::allocator<unsigned char>>::_Vector_impl_data", ptr %_M_impl, i32 0, i32 1
  call void @_ZN9__gnu_cxx17__normal_iteratorIPKhSt6vectorIhSaIhEEEC2ERKS2_(ptr noundef nonnull align 8 dereferenceable(8) %retval, ptr noundef nonnull align 8 dereferenceable(8) %_M_finish) #3
  %coerce.dive = getelementptr inbounds %"class.__gnu_cxx::__normal_iterator", ptr %retval, i32 0, i32 0
  %0 = load ptr, ptr %coerce.dive, align 8
  ret ptr %0
}

; Function Attrs: mustprogress nounwind uwtable
define linkonce_odr dso_local ptr @_ZNKSt6vectorIhSaIhEE5beginEv(ptr noundef nonnull align 8 dereferenceable(24) %this) #4 comdat align 2 {
entry:
  %retval = alloca %"class.__gnu_cxx::__normal_iterator", align 8
  %this.addr = alloca ptr, align 8
  store ptr %this, ptr %this.addr, align 8
  %this1 = load ptr, ptr %this.addr, align 8
  %_M_impl = getelementptr inbounds %"struct.std::_Vector_base.274", ptr %this1, i32 0, i32 0
  %_M_start = getelementptr inbounds %"struct.std::_Vector_base<unsigned char, std::allocator<unsigned char>>::_Vector_impl_data", ptr %_M_impl, i32 0, i32 0
  call void @_ZN9__gnu_cxx17__normal_iteratorIPKhSt6vectorIhSaIhEEEC2ERKS2_(ptr noundef nonnull align 8 dereferenceable(8) %retval, ptr noundef nonnull align 8 dereferenceable(8) %_M_start) #3
  %coerce.dive = getelementptr inbounds %"class.__gnu_cxx::__normal_iterator", ptr %retval, i32 0, i32 0
  %0 = load ptr, ptr %coerce.dive, align 8
  ret ptr %0
}

; Function Attrs: mustprogress nounwind uwtable
define internal void @_ZNK4node12_GLOBAL__N_111ZlibContext15ErrorForMessageEPKc(ptr noalias sret(%"struct.node::(anonymous namespace)::CompressionError") align 8 %agg.result, ptr noundef nonnull align 8 dereferenceable(224) %this, ptr noundef %message) #4 align 2 {
entry:
  %this.addr = alloca ptr, align 8
  %message.addr = alloca ptr, align 8
  store ptr %this, ptr %this.addr, align 8
  store ptr %message, ptr %message.addr, align 8
  %this1 = load ptr, ptr %this.addr, align 8
  %strm_ = getelementptr inbounds %"class.node::(anonymous namespace)::ZlibContext", ptr %this1, i32 0, i32 12
  %msg = getelementptr inbounds %struct.z_stream_s, ptr %strm_, i32 0, i32 6
  %0 = load ptr, ptr %msg, align 8
  %cmp = icmp ne ptr %0, null
  br i1 %cmp, label %if.then, label %if.end

if.then:                                          ; preds = %entry
  %strm_2 = getelementptr inbounds %"class.node::(anonymous namespace)::ZlibContext", ptr %this1, i32 0, i32 12
  %msg3 = getelementptr inbounds %struct.z_stream_s, ptr %strm_2, i32 0, i32 6
  %1 = load ptr, ptr %msg3, align 8
  store ptr %1, ptr %message.addr, align 8
  br label %if.end

if.end:                                           ; preds = %if.then, %entry
  %2 = load ptr, ptr %message.addr, align 8
  %err_ = getelementptr inbounds %"class.node::(anonymous namespace)::ZlibContext", ptr %this1, i32 0, i32 3
  %3 = load i32, ptr %err_, align 4
  %call = call noundef ptr @_ZN4node12_GLOBAL__N_112ZlibStrerrorEi(i32 noundef %3)
  %err_4 = getelementptr inbounds %"class.node::(anonymous namespace)::ZlibContext", ptr %this1, i32 0, i32 3
  %4 = load i32, ptr %err_4, align 4
  call void @_ZN4node12_GLOBAL__N_116CompressionErrorC2EPKcS3_i(ptr noundef nonnull align 8 dereferenceable(20) %agg.result, ptr noundef %2, ptr noundef %call, i32 noundef %4)
  ret void
}

; Function Attrs: mustprogress nounwind uwtable
define linkonce_odr dso_local noundef i64 @_ZNKSt6vectorIhSaIhEE4sizeEv(ptr noundef nonnull align 8 dereferenceable(24) %this) #4 comdat align 2 {
entry:
  %this.addr = alloca ptr, align 8
  store ptr %this, ptr %this.addr, align 8
  %this1 = load ptr, ptr %this.addr, align 8
  %_M_impl = getelementptr inbounds %"struct.std::_Vector_base.274", ptr %this1, i32 0, i32 0
  %_M_finish = getelementptr inbounds %"struct.std::_Vector_base<unsigned char, std::allocator<unsigned char>>::_Vector_impl_data", ptr %_M_impl, i32 0, i32 1
  %0 = load ptr, ptr %_M_finish, align 8
  %_M_impl2 = getelementptr inbounds %"struct.std::_Vector_base.274", ptr %this1, i32 0, i32 0
  %_M_start = getelementptr inbounds %"struct.std::_Vector_base<unsigned char, std::allocator<unsigned char>>::_Vector_impl_data", ptr %_M_impl2, i32 0, i32 0
  %1 = load ptr, ptr %_M_start, align 8
  %sub.ptr.lhs.cast = ptrtoint ptr %0 to i64
  %sub.ptr.rhs.cast = ptrtoint ptr %1 to i64
  %sub.ptr.sub = sub i64 %sub.ptr.lhs.cast, %sub.ptr.rhs.cast
  ret i64 %sub.ptr.sub
}

; Function Attrs: mustprogress nounwind uwtable
define linkonce_odr dso_local noundef ptr @_ZNSt6vectorIhSaIhEE4dataEv(ptr noundef nonnull align 8 dereferenceable(24) %this) #4 comdat align 2 {
entry:
  %this.addr = alloca ptr, align 8
  store ptr %this, ptr %this.addr, align 8
  %this1 = load ptr, ptr %this.addr, align 8
  %_M_impl = getelementptr inbounds %"struct.std::_Vector_base.274", ptr %this1, i32 0, i32 0
  %_M_start = getelementptr inbounds %"struct.std::_Vector_base<unsigned char, std::allocator<unsigned char>>::_Vector_impl_data", ptr %_M_impl, i32 0, i32 0
  %0 = load ptr, ptr %_M_start, align 8
  %call = call noundef ptr @_ZNKSt6vectorIhSaIhEE11_M_data_ptrIhEEPT_S4_(ptr noundef nonnull align 8 dereferenceable(24) %this1, ptr noundef %0) #3
  ret ptr %call
}

; Function Attrs: mustprogress nounwind uwtable
define internal void @_ZN4node12_GLOBAL__N_116CompressionErrorC2Ev(ptr noundef nonnull align 8 dereferenceable(20) %this) unnamed_addr #4 align 2 {
entry:
  %this.addr = alloca ptr, align 8
  store ptr %this, ptr %this.addr, align 8
  %this1 = load ptr, ptr %this.addr, align 8
  %message = getelementptr inbounds %"struct.node::(anonymous namespace)::CompressionError", ptr %this1, i32 0, i32 0
  store ptr null, ptr %message, align 8
  %code = getelementptr inbounds %"struct.node::(anonymous namespace)::CompressionError", ptr %this1, i32 0, i32 1
  store ptr null, ptr %code, align 8
  %err = getelementptr inbounds %"struct.node::(anonymous namespace)::CompressionError", ptr %this1, i32 0, i32 2
  store i32 0, ptr %err, align 8
  ret void
}

; Function Attrs: mustprogress nounwind uwtable
define linkonce_odr dso_local noundef zeroext i1 @_ZNKSt6vectorIhSaIhEE5emptyEv(ptr noundef nonnull align 8 dereferenceable(24) %this) #4 comdat align 2 {
entry:
  %this.addr = alloca ptr, align 8
  %ref.tmp = alloca %"class.__gnu_cxx::__normal_iterator", align 8
  %ref.tmp2 = alloca %"class.__gnu_cxx::__normal_iterator", align 8
  store ptr %this, ptr %this.addr, align 8
  %this1 = load ptr, ptr %this.addr, align 8
  %call = call ptr @_ZNKSt6vectorIhSaIhEE5beginEv(ptr noundef nonnull align 8 dereferenceable(24) %this1) #3
  %coerce.dive = getelementptr inbounds %"class.__gnu_cxx::__normal_iterator", ptr %ref.tmp, i32 0, i32 0
  store ptr %call, ptr %coerce.dive, align 8
  %call3 = call ptr @_ZNKSt6vectorIhSaIhEE3endEv(ptr noundef nonnull align 8 dereferenceable(24) %this1) #3
  %coerce.dive4 = getelementptr inbounds %"class.__gnu_cxx::__normal_iterator", ptr %ref.tmp2, i32 0, i32 0
  store ptr %call3, ptr %coerce.dive4, align 8
  %call5 = call noundef zeroext i1 @_ZN9__gnu_cxxeqIPKhSt6vectorIhSaIhEEEEbRKNS_17__normal_iteratorIT_T0_EESB_(ptr noundef nonnull align 8 dereferenceable(8) %ref.tmp, ptr noundef nonnull align 8 dereferenceable(8) %ref.tmp2) #3
  ret i1 %call5
}

; Function Attrs: mustprogress nounwind uwtable
define internal void @_ZN4node12_GLOBAL__N_111ZlibContext13SetDictionaryEv(ptr noalias sret(%"struct.node::(anonymous namespace)::CompressionError") align 8 %agg.result, ptr noundef nonnull align 8 dereferenceable(224) %this) #4 align 2 {
entry:
  %this.addr = alloca ptr, align 8
  store ptr %this, ptr %this.addr, align 8
  %this1 = load ptr, ptr %this.addr, align 8
  %dictionary_ = getelementptr inbounds %"class.node::(anonymous namespace)::ZlibContext", ptr %this1, i32 0, i32 11
  %call = call noundef zeroext i1 @_ZNKSt6vectorIhSaIhEE5emptyEv(ptr noundef nonnull align 8 dereferenceable(24) %dictionary_) #3
  br i1 %call, label %if.then, label %if.end

if.then:                                          ; preds = %entry
  call void @llvm.memset.p0.i64(ptr align 8 %agg.result, i8 0, i64 24, i1 false)
  call void @_ZN4node12_GLOBAL__N_116CompressionErrorC2Ev(ptr noundef nonnull align 8 dereferenceable(20) %agg.result) #3
  br label %return

if.end:                                           ; preds = %entry
  %err_ = getelementptr inbounds %"class.node::(anonymous namespace)::ZlibContext", ptr %this1, i32 0, i32 3
  store i32 0, ptr %err_, align 4
  %mode_ = getelementptr inbounds %"class.node::(anonymous namespace)::ZlibContext", ptr %this1, i32 0, i32 7
  %0 = load i32, ptr %mode_, align 4
  switch i32 %0, label %sw.default [
    i32 1, label %sw.bb
    i32 5, label %sw.bb
    i32 6, label %sw.bb8
  ]

sw.bb:                                            ; preds = %if.end, %if.end
  %strm_ = getelementptr inbounds %"class.node::(anonymous namespace)::ZlibContext", ptr %this1, i32 0, i32 12
  %dictionary_2 = getelementptr inbounds %"class.node::(anonymous namespace)::ZlibContext", ptr %this1, i32 0, i32 11
  %call3 = call noundef ptr @_ZNSt6vectorIhSaIhEE4dataEv(ptr noundef nonnull align 8 dereferenceable(24) %dictionary_2) #3
  %dictionary_4 = getelementptr inbounds %"class.node::(anonymous namespace)::ZlibContext", ptr %this1, i32 0, i32 11
  %call5 = call noundef i64 @_ZNKSt6vectorIhSaIhEE4sizeEv(ptr noundef nonnull align 8 dereferenceable(24) %dictionary_4) #3
  %conv = trunc i64 %call5 to i32
  %call6 = call i32 @deflateSetDictionary(ptr noundef %strm_, ptr noundef %call3, i32 noundef %conv)
  %err_7 = getelementptr inbounds %"class.node::(anonymous namespace)::ZlibContext", ptr %this1, i32 0, i32 3
  store i32 %call6, ptr %err_7, align 4
  br label %sw.epilog

sw.bb8:                                           ; preds = %if.end
  %strm_9 = getelementptr inbounds %"class.node::(anonymous namespace)::ZlibContext", ptr %this1, i32 0, i32 12
  %dictionary_10 = getelementptr inbounds %"class.node::(anonymous namespace)::ZlibContext", ptr %this1, i32 0, i32 11
  %call11 = call noundef ptr @_ZNSt6vectorIhSaIhEE4dataEv(ptr noundef nonnull align 8 dereferenceable(24) %dictionary_10) #3
  %dictionary_12 = getelementptr inbounds %"class.node::(anonymous namespace)::ZlibContext", ptr %this1, i32 0, i32 11
  %call13 = call noundef i64 @_ZNKSt6vectorIhSaIhEE4sizeEv(ptr noundef nonnull align 8 dereferenceable(24) %dictionary_12) #3
  %conv14 = trunc i64 %call13 to i32
  %call15 = call i32 @inflateSetDictionary(ptr noundef %strm_9, ptr noundef %call11, i32 noundef %conv14)
  %err_16 = getelementptr inbounds %"class.node::(anonymous namespace)::ZlibContext", ptr %this1, i32 0, i32 3
  store i32 %call15, ptr %err_16, align 4
  br label %sw.epilog

sw.default:                                       ; preds = %if.end
  br label %sw.epilog

sw.epilog:                                        ; preds = %sw.default, %sw.bb8, %sw.bb
  %err_17 = getelementptr inbounds %"class.node::(anonymous namespace)::ZlibContext", ptr %this1, i32 0, i32 3
  %1 = load i32, ptr %err_17, align 4
  %cmp = icmp ne i32 %1, 0
  br i1 %cmp, label %if.then18, label %if.end19

if.then18:                                        ; preds = %sw.epilog
  call void @_ZNK4node12_GLOBAL__N_111ZlibContext15ErrorForMessageEPKc(ptr sret(%"struct.node::(anonymous namespace)::CompressionError") align 8 %agg.result, ptr noundef nonnull align 8 dereferenceable(224) %this1, ptr noundef @.str.173)
  br label %return

if.end19:                                         ; preds = %sw.epilog
  call void @llvm.memset.p0.i64(ptr align 8 %agg.result, i8 0, i64 24, i1 false)
  call void @_ZN4node12_GLOBAL__N_116CompressionErrorC2Ev(ptr noundef nonnull align 8 dereferenceable(20) %agg.result) #3
  br label %return

return:                                           ; preds = %if.end19, %if.then18, %if.then
  ret void
}