; Function Attrs: mustprogress nounwind uwtable
define internal fastcc void @_ZN4node12_GLOBAL__N_111ZlibContext13SetDictionaryEv(ptr noalias nocapture writeonly align 8 %agg.result, ptr noundef nonnull align 8 dereferenceable(224) %this) unnamed_addr #3 align 2 {
entry:
  %dictionary_ = getelementptr inbounds i8, ptr %this, i64 88
  %0 = load ptr, ptr %dictionary_, align 8
  %_M_finish.i.i = getelementptr inbounds i8, ptr %this, i64 96
  %1 = load ptr, ptr %_M_finish.i.i, align 8
  %cmp.i.i = icmp eq ptr %0, %1
  br i1 %cmp.i.i, label %if.then, label %if.end

if.then:                                          ; preds = %entry
  tail call void @llvm.memset.p0.i64(ptr noundef nonnull align 8 dereferenceable(24) %agg.result, i8 0, i64 24, i1 false)
  br label %return

if.end:                                           ; preds = %entry
  %err_ = getelementptr inbounds i8, ptr %this, i64 52
  store i32 0, ptr %err_, align 4
  %mode_ = getelementptr inbounds i8, ptr %this, i64 68
  %2 = load i32, ptr %mode_, align 4
  switch i32 %2, label %if.end19 [
    i32 1, label %sw.bb
    i32 5, label %sw.bb
    i32 6, label %sw.bb8
  ]

sw.bb:                                            ; preds = %if.end, %if.end
  %strm_ = getelementptr inbounds i8, ptr %this, i64 112
  %sub.ptr.lhs.cast.i = ptrtoint ptr %1 to i64
  %sub.ptr.rhs.cast.i = ptrtoint ptr %0 to i64
  %sub.ptr.sub.i = sub i64 %sub.ptr.lhs.cast.i, %sub.ptr.rhs.cast.i
  %conv = trunc i64 %sub.ptr.sub.i to i32
  %call6 = tail call i32 @deflateSetDictionary(ptr noundef nonnull %strm_, ptr noundef %0, i32 noundef %conv) #22
  br label %sw.epilog

sw.bb8:                                           ; preds = %if.end
  %strm_9 = getelementptr inbounds i8, ptr %this, i64 112
  %sub.ptr.lhs.cast.i3 = ptrtoint ptr %1 to i64
  %sub.ptr.rhs.cast.i4 = ptrtoint ptr %0 to i64
  %sub.ptr.sub.i5 = sub i64 %sub.ptr.lhs.cast.i3, %sub.ptr.rhs.cast.i4
  %conv14 = trunc i64 %sub.ptr.sub.i5 to i32
  %call15 = tail call i32 @inflateSetDictionary(ptr noundef nonnull %strm_9, ptr noundef %0, i32 noundef %conv14) #22
  br label %sw.epilog

sw.epilog:                                        ; preds = %sw.bb8, %sw.bb
  %3 = phi i32 [ %call15, %sw.bb8 ], [ %call6, %sw.bb ]
  store i32 %3, ptr %err_, align 4
  %cmp.not = icmp eq i32 %3, 0
  br i1 %cmp.not, label %if.end19, label %if.then18

if.then18:                                        ; preds = %sw.epilog
  %4 = getelementptr inbounds i8, ptr %this, i64 160
  %this.val1 = load ptr, ptr %4, align 8
  %cmp.not.i = icmp eq ptr %this.val1, null
  %spec.select.i = select i1 %cmp.not.i, ptr @.str.173, ptr %this.val1
  %switch.tableidx = add i32 %3, 6
  %5 = icmp ult i32 %switch.tableidx, 9
  br i1 %5, label %switch.lookup, label %_ZNK4node12_GLOBAL__N_111ZlibContext15ErrorForMessageEPKc.exit

switch.lookup:                                    ; preds = %if.then18
  %6 = zext nneg i32 %switch.tableidx to i64
  %switch.gep = getelementptr inbounds [9 x ptr], ptr @switch.table._ZN4node12_GLOBAL__N_111ZlibContext13SetDictionaryEv, i64 0, i64 %6
  %switch.load = load ptr, ptr %switch.gep, align 8
  br label %_ZNK4node12_GLOBAL__N_111ZlibContext15ErrorForMessageEPKc.exit

_ZNK4node12_GLOBAL__N_111ZlibContext15ErrorForMessageEPKc.exit: ; preds = %if.then18, %switch.lookup
  %retval.0.i.i = phi ptr [ %switch.load, %switch.lookup ], [ @.str.174, %if.then18 ]
  store ptr %spec.select.i, ptr %agg.result, align 8, !alias.scope !48
  %code3.i.i = getelementptr inbounds i8, ptr %agg.result, i64 8
  store ptr %retval.0.i.i, ptr %code3.i.i, align 8, !alias.scope !48
  %err4.i.i = getelementptr inbounds i8, ptr %agg.result, i64 16
  store i32 %3, ptr %err4.i.i, align 8, !alias.scope !48
  br label %return

if.end19:                                         ; preds = %if.end, %sw.epilog
  tail call void @llvm.memset.p0.i64(ptr noundef nonnull align 8 dereferenceable(24) %agg.result, i8 0, i64 24, i1 false)
  br label %return

return:                                           ; preds = %if.end19, %_ZNK4node12_GLOBAL__N_111ZlibContext15ErrorForMessageEPKc.exit, %if.then
  ret void
}